target datalayout = "e-m:e-p270:32:32-p271:32:32-p272:64:64-i64:64-i128:128-f80:128-n8:16:32:64-S128"
target triple = "x86_64-pc-linux-gnu"

%struct.forward = type { %struct.slurm_node_alias_addrs_t, i16, i16, ptr, i32, i16, i16 }
%struct.slurm_node_alias_addrs_t = type { i64, ptr, ptr, i32, ptr }
%struct.sockaddr_storage = type { i16, [118 x i8], i64 }
%struct.slurm_msg = type { %struct.sockaddr_storage, ptr, i32, i32, i32, i8, i32, i8, i32, ptr, ptr, i32, ptr, ptr, i16, i8, i16, i16, %struct.forward, ptr, %struct.sockaddr_storage, ptr }
%struct.crontab_response_msg_t = type { ptr, ptr }

@.str.2 = private unnamed_addr constant [22 x i8] c"slurm_protocol_pack.c\00", align 1
@__func__._unpack_crontab_response_msg = private unnamed_addr constant [29 x i8] c"_unpack_crontab_response_msg\00", align 1

; Function Attrs: nounwind uwtable
define internal i32 @_unpack_crontab_response_msg(ptr noundef %0, ptr noundef %1) #0 {
  %3 = alloca i32, align 4
  %4 = alloca ptr, align 8
  %5 = alloca ptr, align 8
  %6 = alloca ptr, align 8
  %7 = alloca i32, align 4
  %8 = alloca i32, align 4
  %9 = alloca i32, align 4
  store ptr %0, ptr %4, align 8
  store ptr %1, ptr %5, align 8
  call void @llvm.lifetime.start.p0(i64 8, ptr %6) #6
  %10 = call ptr @slurm_xcalloc(i64 noundef 1, i64 noundef 16, i1 noundef zeroext true, i1 noundef zeroext false, ptr noundef @.str.2, i32 noundef 12399, ptr noundef @__func__._unpack_crontab_response_msg)
  store ptr %10, ptr %6, align 8
  %11 = load ptr, ptr %6, align 8
  %12 = load ptr, ptr %4, align 8
  %13 = getelementptr inbounds nuw %struct.slurm_msg, ptr %12, i32 0, i32 13
  store ptr %11, ptr %13, align 8
  %14 = load ptr, ptr %4, align 8
  %15 = getelementptr inbounds nuw %struct.slurm_msg, ptr %14, i32 0, i32 17
  %16 = load i16, ptr %15, align 2
  %17 = zext i16 %16 to i32
  %18 = icmp sge i32 %17, 10240
  br i1 %18, label %19, label %46

19:                                               ; preds = %2
  br label %20

20:                                               ; preds = %19
  call void @llvm.lifetime.start.p0(i64 4, ptr %7) #6
  %21 = load ptr, ptr %6, align 8
  %22 = getelementptr inbounds nuw %struct.crontab_response_msg_t, ptr %21, i32 0, i32 0
  %23 = load ptr, ptr %5, align 8
  %24 = call i32 @unpackstr_xmalloc_chooser(ptr noundef %22, ptr noundef %7, ptr noundef %23)
  %25 = icmp ne i32 %24, 0
  br i1 %25, label %26, label %27

26:                                               ; preds = %20
  store i32 4, ptr %8, align 4
  br label %28

27:                                               ; preds = %20
  store i32 0, ptr %8, align 4
  br label %28

28:                                               ; preds = %26, %27
  call void @llvm.lifetime.end.p0(i64 4, ptr %7) #6
  %29 = load i32, ptr %8, align 4
  switch i32 %29, label %51 [
    i32 0, label %30
    i32 4, label %47
  ]

30:                                               ; preds = %28
  br label %31

31:                                               ; preds = %30
  br label %32

32:                                               ; preds = %31
  br label %33

33:                                               ; preds = %32
  call void @llvm.lifetime.start.p0(i64 4, ptr %9) #6
  %34 = load ptr, ptr %6, align 8
  %35 = getelementptr inbounds nuw %struct.crontab_response_msg_t, ptr %34, i32 0, i32 1
  %36 = load ptr, ptr %5, align 8
  %37 = call i32 @unpackstr_xmalloc_chooser(ptr noundef %35, ptr noundef %9, ptr noundef %36)
  %38 = icmp ne i32 %37, 0
  br i1 %38, label %39, label %40

39:                                               ; preds = %33
  store i32 4, ptr %8, align 4
  br label %41

40:                                               ; preds = %33
  store i32 0, ptr %8, align 4
  br label %41

41:                                               ; preds = %39, %40
  call void @llvm.lifetime.end.p0(i64 4, ptr %9) #6
  %42 = load i32, ptr %8, align 4
  switch i32 %42, label %51 [
    i32 0, label %43
    i32 4, label %47
  ]

43:                                               ; preds = %41
  br label %44

44:                                               ; preds = %43
  br label %45

45:                                               ; preds = %44
  br label %46

46:                                               ; preds = %45, %2
  store i32 0, ptr %3, align 4
  store i32 1, ptr %8, align 4
  br label %51

47:                                               ; preds = %41, %28
  %48 = load ptr, ptr %6, align 8
  call void @slurm_free_crontab_response_msg(ptr noundef %48)
  %49 = load ptr, ptr %4, align 8
  %50 = getelementptr inbounds nuw %struct.slurm_msg, ptr %49, i32 0, i32 13
  store ptr null, ptr %50, align 8
  store i32 -1, ptr %3, align 4
  store i32 1, ptr %8, align 4
  br label %51

51:                                               ; preds = %47, %46, %41, %28
  call void @llvm.lifetime.end.p0(i64 8, ptr %6) #6
  %52 = load i32, ptr %3, align 4
  ret i32 %52
}