; Function Attrs: nounwind uwtable
define internal fastcc range(i32 -1, 1) i32 @_unpack_crontab_response_msg(ptr noundef captures(none) initializes((200, 208)) %0, ptr noundef %1) unnamed_addr #0 {
  %3 = alloca i32, align 4
  %4 = alloca i32, align 4
  %5 = tail call ptr @slurm_xcalloc(i64 noundef 1, i64 noundef 16, i1 noundef zeroext true, i1 noundef zeroext false, ptr noundef nonnull @.str.2, i32 noundef 12399, ptr noundef nonnull @__func__._unpack_crontab_response_msg) #7
  %6 = getelementptr inbounds nuw i8, ptr %0, i64 200
  store ptr %5, ptr %6, align 8
  %7 = getelementptr inbounds nuw i8, ptr %0, i64 214
  %8 = load i16, ptr %7, align 2
  %9 = icmp ugt i16 %8, 10239
  br i1 %9, label %10, label %16

10:                                               ; preds = %2
  call void @llvm.lifetime.start.p0(i64 4, ptr nonnull %3) #7
  %11 = call i32 @unpackstr_xmalloc_chooser(ptr noundef %5, ptr noundef nonnull %3, ptr noundef %1) #7
  %.not = icmp eq i32 %11, 0
  call void @llvm.lifetime.end.p0(i64 4, ptr nonnull %3) #7
  br i1 %.not, label %12, label %15

12:                                               ; preds = %10
  call void @llvm.lifetime.start.p0(i64 4, ptr nonnull %4) #7
  %13 = getelementptr inbounds nuw i8, ptr %5, i64 8
  %14 = call i32 @unpackstr_xmalloc_chooser(ptr noundef nonnull %13, ptr noundef nonnull %4, ptr noundef %1) #7
  %.not12 = icmp eq i32 %14, 0
  call void @llvm.lifetime.end.p0(i64 4, ptr nonnull %4) #7
  br i1 %.not12, label %16, label %15

15:                                               ; preds = %12, %10
  call void @slurm_free_crontab_response_msg(ptr noundef %5) #7
  store ptr null, ptr %6, align 8
  br label %16

16:                                               ; preds = %12, %2, %15
  %.011 = phi i32 [ -1, %15 ], [ 0, %12 ], [ 0, %2 ]
  ret i32 %.011
}